target datalayout = "e-m:e-p270:32:32-p271:32:32-p272:64:64-i64:64-i128:128-f80:128-n8:16:32:64-S128"
target triple = "x86_64-pc-linux-gnu"

%"class.cvc5::internal::Options" = type { %"class.std::unique_ptr.95", %"class.std::unique_ptr.103", %"class.std::unique_ptr.111", %"class.std::unique_ptr.119", %"class.std::unique_ptr.127", %"class.std::unique_ptr.135", %"class.std::unique_ptr.143", %"class.std::unique_ptr.151", %"class.std::unique_ptr.159", %"class.std::unique_ptr.167", %"class.std::unique_ptr.175", %"class.std::unique_ptr.183", %"class.std::unique_ptr.191", %"class.std::unique_ptr.199", %"class.std::unique_ptr.207", %"class.std::unique_ptr.215", %"class.std::unique_ptr.223", %"class.std::unique_ptr.231", %"class.std::unique_ptr.239", %"class.std::unique_ptr.247", %"class.std::unique_ptr.255", %"class.std::unique_ptr.263", %"class.std::unique_ptr.271", %"class.std::unique_ptr.279", %"class.std::unique_ptr.287", ptr, ptr, ptr, ptr, ptr, ptr, ptr, ptr, ptr, ptr, ptr, ptr, ptr, ptr, ptr, ptr, ptr, ptr, ptr, ptr, ptr, ptr, ptr, ptr, ptr, %"class.std::unique_ptr.295" }
%"class.std::unique_ptr.95" = type { %"struct.std::__uniq_ptr_data.96" }
%"struct.std::__uniq_ptr_data.96" = type { %"class.std::__uniq_ptr_impl.97" }
%"class.std::__uniq_ptr_impl.97" = type { %"class.std::tuple.98" }
%"class.std::tuple.98" = type { %"struct.std::_Tuple_impl.99" }
%"struct.std::_Tuple_impl.99" = type { %"struct.std::_Head_base.102" }
%"struct.std::_Head_base.102" = type { ptr }
%"class.std::unique_ptr.103" = type { %"struct.std::__uniq_ptr_data.104" }
%"struct.std::__uniq_ptr_data.104" = type { %"class.std::__uniq_ptr_impl.105" }
%"class.std::__uniq_ptr_impl.105" = type { %"class.std::tuple.106" }
%"class.std::tuple.106" = type { %"struct.std::_Tuple_impl.107" }
%"struct.std::_Tuple_impl.107" = type { %"struct.std::_Head_base.110" }
%"struct.std::_Head_base.110" = type { ptr }
%"class.std::unique_ptr.111" = type { %"struct.std::__uniq_ptr_data.112" }
%"struct.std::__uniq_ptr_data.112" = type { %"class.std::__uniq_ptr_impl.113" }
%"class.std::__uniq_ptr_impl.113" = type { %"class.std::tuple.114" }
%"class.std::tuple.114" = type { %"struct.std::_Tuple_impl.115" }
%"struct.std::_Tuple_impl.115" = type { %"struct.std::_Head_base.118" }
%"struct.std::_Head_base.118" = type { ptr }
%"class.std::unique_ptr.119" = type { %"struct.std::__uniq_ptr_data.120" }
%"struct.std::__uniq_ptr_data.120" = type { %"class.std::__uniq_ptr_impl.121" }
%"class.std::__uniq_ptr_impl.121" = type { %"class.std::tuple.122" }
%"class.std::tuple.122" = type { %"struct.std::_Tuple_impl.123" }
%"struct.std::_Tuple_impl.123" = type { %"struct.std::_Head_base.126" }
%"struct.std::_Head_base.126" = type { ptr }
%"class.std::unique_ptr.127" = type { %"struct.std::__uniq_ptr_data.128" }
%"struct.std::__uniq_ptr_data.128" = type { %"class.std::__uniq_ptr_impl.129" }
%"class.std::__uniq_ptr_impl.129" = type { %"class.std::tuple.130" }
%"class.std::tuple.130" = type { %"struct.std::_Tuple_impl.131" }
%"struct.std::_Tuple_impl.131" = type { %"struct.std::_Head_base.134" }
%"struct.std::_Head_base.134" = type { ptr }
%"class.std::unique_ptr.135" = type { %"struct.std::__uniq_ptr_data.136" }
%"struct.std::__uniq_ptr_data.136" = type { %"class.std::__uniq_ptr_impl.137" }
%"class.std::__uniq_ptr_impl.137" = type { %"class.std::tuple.138" }
%"class.std::tuple.138" = type { %"struct.std::_Tuple_impl.139" }
%"struct.std::_Tuple_impl.139" = type { %"struct.std::_Head_base.142" }
%"struct.std::_Head_base.142" = type { ptr }
%"class.std::unique_ptr.143" = type { %"struct.std::__uniq_ptr_data.144" }
%"struct.std::__uniq_ptr_data.144" = type { %"class.std::__uniq_ptr_impl.145" }
%"class.std::__uniq_ptr_impl.145" = type { %"class.std::tuple.146" }
%"class.std::tuple.146" = type { %"struct.std::_Tuple_impl.147" }
%"struct.std::_Tuple_impl.147" = type { %"struct.std::_Head_base.150" }
%"struct.std::_Head_base.150" = type { ptr }
%"class.std::unique_ptr.151" = type { %"struct.std::__uniq_ptr_data.152" }
%"struct.std::__uniq_ptr_data.152" = type { %"class.std::__uniq_ptr_impl.153" }
%"class.std::__uniq_ptr_impl.153" = type { %"class.std::tuple.154" }
%"class.std::tuple.154" = type { %"struct.std::_Tuple_impl.155" }
%"struct.std::_Tuple_impl.155" = type { %"struct.std::_Head_base.158" }
%"struct.std::_Head_base.158" = type { ptr }
%"class.std::unique_ptr.159" = type { %"struct.std::__uniq_ptr_data.160" }
%"struct.std::__uniq_ptr_data.160" = type { %"class.std::__uniq_ptr_impl.161" }
%"class.std::__uniq_ptr_impl.161" = type { %"class.std::tuple.162" }
%"class.std::tuple.162" = type { %"struct.std::_Tuple_impl.163" }
%"struct.std::_Tuple_impl.163" = type { %"struct.std::_Head_base.166" }
%"struct.std::_Head_base.166" = type { ptr }
%"class.std::unique_ptr.167" = type { %"struct.std::__uniq_ptr_data.168" }
%"struct.std::__uniq_ptr_data.168" = type { %"class.std::__uniq_ptr_impl.169" }
%"class.std::__uniq_ptr_impl.169" = type { %"class.std::tuple.170" }
%"class.std::tuple.170" = type { %"struct.std::_Tuple_impl.171" }
%"struct.std::_Tuple_impl.171" = type { %"struct.std::_Head_base.174" }
%"struct.std::_Head_base.174" = type { ptr }
%"class.std::unique_ptr.175" = type { %"struct.std::__uniq_ptr_data.176" }
%"struct.std::__uniq_ptr_data.176" = type { %"class.std::__uniq_ptr_impl.177" }
%"class.std::__uniq_ptr_impl.177" = type { %"class.std::tuple.178" }
%"class.std::tuple.178" = type { %"struct.std::_Tuple_impl.179" }
%"struct.std::_Tuple_impl.179" = type { %"struct.std::_Head_base.182" }
%"struct.std::_Head_base.182" = type { ptr }
%"class.std::unique_ptr.183" = type { %"struct.std::__uniq_ptr_data.184" }
%"struct.std::__uniq_ptr_data.184" = type { %"class.std::__uniq_ptr_impl.185" }
%"class.std::__uniq_ptr_impl.185" = type { %"class.std::tuple.186" }
%"class.std::tuple.186" = type { %"struct.std::_Tuple_impl.187" }
%"struct.std::_Tuple_impl.187" = type { %"struct.std::_Head_base.190" }
%"struct.std::_Head_base.190" = type { ptr }
%"class.std::unique_ptr.191" = type { %"struct.std::__uniq_ptr_data.192" }
%"struct.std::__uniq_ptr_data.192" = type { %"class.std::__uniq_ptr_impl.193" }
%"class.std::__uniq_ptr_impl.193" = type { %"class.std::tuple.194" }
%"class.std::tuple.194" = type { %"struct.std::_Tuple_impl.195" }
%"struct.std::_Tuple_impl.195" = type { %"struct.std::_Head_base.198" }
%"struct.std::_Head_base.198" = type { ptr }
%"class.std::unique_ptr.199" = type { %"struct.std::__uniq_ptr_data.200" }
%"struct.std::__uniq_ptr_data.200" = type { %"class.std::__uniq_ptr_impl.201" }
%"class.std::__uniq_ptr_impl.201" = type { %"class.std::tuple.202" }
%"class.std::tuple.202" = type { %"struct.std::_Tuple_impl.203" }
%"struct.std::_Tuple_impl.203" = type { %"struct.std::_Head_base.206" }
%"struct.std::_Head_base.206" = type { ptr }
%"class.std::unique_ptr.207" = type { %"struct.std::__uniq_ptr_data.208" }
%"struct.std::__uniq_ptr_data.208" = type { %"class.std::__uniq_ptr_impl.209" }
%"class.std::__uniq_ptr_impl.209" = type { %"class.std::tuple.210" }
%"class.std::tuple.210" = type { %"struct.std::_Tuple_impl.211" }
%"struct.std::_Tuple_impl.211" = type { %"struct.std::_Head_base.214" }
%"struct.std::_Head_base.214" = type { ptr }
%"class.std::unique_ptr.215" = type { %"struct.std::__uniq_ptr_data.216" }
%"struct.std::__uniq_ptr_data.216" = type { %"class.std::__uniq_ptr_impl.217" }
%"class.std::__uniq_ptr_impl.217" = type { %"class.std::tuple.218" }
%"class.std::tuple.218" = type { %"struct.std::_Tuple_impl.219" }
%"struct.std::_Tuple_impl.219" = type { %"struct.std::_Head_base.222" }
%"struct.std::_Head_base.222" = type { ptr }
%"class.std::unique_ptr.223" = type { %"struct.std::__uniq_ptr_data.224" }
%"struct.std::__uniq_ptr_data.224" = type { %"class.std::__uniq_ptr_impl.225" }
%"class.std::__uniq_ptr_impl.225" = type { %"class.std::tuple.226" }
%"class.std::tuple.226" = type { %"struct.std::_Tuple_impl.227" }
%"struct.std::_Tuple_impl.227" = type { %"struct.std::_Head_base.230" }
%"struct.std::_Head_base.230" = type { ptr }
%"class.std::unique_ptr.231" = type { %"struct.std::__uniq_ptr_data.232" }
%"struct.std::__uniq_ptr_data.232" = type { %"class.std::__uniq_ptr_impl.233" }
%"class.std::__uniq_ptr_impl.233" = type { %"class.std::tuple.234" }
%"class.std::tuple.234" = type { %"struct.std::_Tuple_impl.235" }
%"struct.std::_Tuple_impl.235" = type { %"struct.std::_Head_base.238" }
%"struct.std::_Head_base.238" = type { ptr }
%"class.std::unique_ptr.239" = type { %"struct.std::__uniq_ptr_data.240" }
%"struct.std::__uniq_ptr_data.240" = type { %"class.std::__uniq_ptr_impl.241" }
%"class.std::__uniq_ptr_impl.241" = type { %"class.std::tuple.242" }
%"class.std::tuple.242" = type { %"struct.std::_Tuple_impl.243" }
%"struct.std::_Tuple_impl.243" = type { %"struct.std::_Head_base.246" }
%"struct.std::_Head_base.246" = type { ptr }
%"class.std::unique_ptr.247" = type { %"struct.std::__uniq_ptr_data.248" }
%"struct.std::__uniq_ptr_data.248" = type { %"class.std::__uniq_ptr_impl.249" }
%"class.std::__uniq_ptr_impl.249" = type { %"class.std::tuple.250" }
%"class.std::tuple.250" = type { %"struct.std::_Tuple_impl.251" }
%"struct.std::_Tuple_impl.251" = type { %"struct.std::_Head_base.254" }
%"struct.std::_Head_base.254" = type { ptr }
%"class.std::unique_ptr.255" = type { %"struct.std::__uniq_ptr_data.256" }
%"struct.std::__uniq_ptr_data.256" = type { %"class.std::__uniq_ptr_impl.257" }
%"class.std::__uniq_ptr_impl.257" = type { %"class.std::tuple.258" }
%"class.std::tuple.258" = type { %"struct.std::_Tuple_impl.259" }
%"struct.std::_Tuple_impl.259" = type { %"struct.std::_Head_base.262" }
%"struct.std::_Head_base.262" = type { ptr }
%"class.std::unique_ptr.263" = type { %"struct.std::__uniq_ptr_data.264" }
%"struct.std::__uniq_ptr_data.264" = type { %"class.std::__uniq_ptr_impl.265" }
%"class.std::__uniq_ptr_impl.265" = type { %"class.std::tuple.266" }
%"class.std::tuple.266" = type { %"struct.std::_Tuple_impl.267" }
%"struct.std::_Tuple_impl.267" = type { %"struct.std::_Head_base.270" }
%"struct.std::_Head_base.270" = type { ptr }
%"class.std::unique_ptr.271" = type { %"struct.std::__uniq_ptr_data.272" }
%"struct.std::__uniq_ptr_data.272" = type { %"class.std::__uniq_ptr_impl.273" }
%"class.std::__uniq_ptr_impl.273" = type { %"class.std::tuple.274" }
%"class.std::tuple.274" = type { %"struct.std::_Tuple_impl.275" }
%"struct.std::_Tuple_impl.275" = type { %"struct.std::_Head_base.278" }
%"struct.std::_Head_base.278" = type { ptr }
%"class.std::unique_ptr.279" = type { %"struct.std::__uniq_ptr_data.280" }
%"struct.std::__uniq_ptr_data.280" = type { %"class.std::__uniq_ptr_impl.281" }
%"class.std::__uniq_ptr_impl.281" = type { %"class.std::tuple.282" }
%"class.std::tuple.282" = type { %"struct.std::_Tuple_impl.283" }
%"struct.std::_Tuple_impl.283" = type { %"struct.std::_Head_base.286" }
%"struct.std::_Head_base.286" = type { ptr }
%"class.std::unique_ptr.287" = type { %"struct.std::__uniq_ptr_data.288" }
%"struct.std::__uniq_ptr_data.288" = type { %"class.std::__uniq_ptr_impl.289" }
%"class.std::__uniq_ptr_impl.289" = type { %"class.std::tuple.290" }
%"class.std::tuple.290" = type { %"struct.std::_Tuple_impl.291" }
%"struct.std::_Tuple_impl.291" = type { %"struct.std::_Head_base.294" }
%"struct.std::_Head_base.294" = type { ptr }
%"class.std::unique_ptr.295" = type { %"struct.std::__uniq_ptr_data.296" }
%"struct.std::__uniq_ptr_data.296" = type { %"class.std::__uniq_ptr_impl.297" }
%"class.std::__uniq_ptr_impl.297" = type { %"class.std::tuple.298" }
%"class.std::tuple.298" = type { %"struct.std::_Tuple_impl.299" }
%"struct.std::_Tuple_impl.299" = type { %"struct.std::_Head_base.302" }
%"struct.std::_Head_base.302" = type { ptr }
%"struct.cvc5::internal::options::HolderSTRINGS" = type <{ i32, i8, [3 x i8], i32, i8, [3 x i8], i32, i8, [3 x i8], i64, i8, i8, i8, i8, i8, i8, i8, i8, i8, i8, i8, i8, i8, i8, i8, i8, i8, i8, i8, i8, i8, i8, i8, i8, i8, i8, i8, i8, i8, [3 x i8], i64, i8, [3 x i8], i32, i8, i8, i8, i8, i8, i8, i8, i8, i8, i8, i8, [5 x i8] }>

; Function Attrs: mustprogress uwtable
define hidden noundef zeroext i1 @_ZNK4cvc58internal6theory7strings12RegExpSolver12shouldUnfoldENS1_6Theory6EffortEb(ptr noundef nonnull align 8 dereferenceable(680) %0, i32 noundef %1, i1 noundef zeroext %2) #4 align 2 {
  %4 = alloca i1, align 1
  %5 = alloca ptr, align 8
  %6 = alloca i32, align 4
  %7 = alloca i8, align 1
  store ptr %0, ptr %5, align 8, !tbaa !3
  store i32 %1, ptr %6, align 4, !tbaa !146
  %8 = zext i1 %2 to i8
  store i8 %8, ptr %7, align 1, !tbaa !24
  %9 = load ptr, ptr %5, align 8
  %10 = call noundef nonnull align 8 dereferenceable(408) ptr @_ZNK4cvc58internal6EnvObj7optionsEv(ptr noundef nonnull align 8 dereferenceable(16) %9)
  %11 = getelementptr inbounds nuw %"class.cvc5::internal::Options", ptr %10, i32 0, i32 47
  %12 = load ptr, ptr %11, align 8, !tbaa !153
  %13 = getelementptr inbounds nuw %"struct.cvc5::internal::options::HolderSTRINGS", ptr %12, i32 0, i32 37
  %14 = load i8, ptr %13, align 1, !tbaa !368, !range !37, !noundef !38
  %15 = trunc i8 %14 to i1
  br i1 %15, label %16, label %25

16:                                               ; preds = %3
  %17 = load i8, ptr %7, align 1, !tbaa !24, !range !37, !noundef !38
  %18 = trunc i8 %17 to i1
  br i1 %18, label %19, label %22

19:                                               ; preds = %16
  %20 = load i32, ptr %6, align 4, !tbaa !146
  %21 = icmp eq i32 %20, 100
  store i1 %21, ptr %4, align 1
  br label %26

22:                                               ; preds = %16
  %23 = load i32, ptr %6, align 4, !tbaa !146
  %24 = icmp eq i32 %23, 200
  store i1 %24, ptr %4, align 1
  br label %26

25:                                               ; preds = %3
  store i1 true, ptr %4, align 1
  br label %26

26:                                               ; preds = %25, %22, %19
  %27 = load i1, ptr %4, align 1
  ret i1 %27
}