; Function Attrs: mustprogress uwtable
define hidden noundef zeroext i1 @_ZNK4cvc58internal6theory7strings12RegExpSolver12shouldUnfoldENS1_6Theory6EffortEb(ptr noundef nonnull align 8 dereferenceable(680) %0, i32 noundef %1, i1 noundef zeroext %2) local_unnamed_addr #3 align 2 {
  %4 = tail call noundef nonnull align 8 dereferenceable(408) ptr @_ZNK4cvc58internal6EnvObj7optionsEv(ptr noundef nonnull align 8 dereferenceable(16) %0)
  %5 = getelementptr inbounds nuw i8, ptr %4, i64 376
  %6 = load ptr, ptr %5, align 8, !tbaa !124
  %7 = getelementptr inbounds nuw i8, ptr %6, i64 59
  %8 = load i8, ptr %7, align 1, !tbaa !337, !range !110, !noundef !111
  %9 = trunc nuw i8 %8 to i1
  br i1 %9, label %10, label %15

10:                                               ; preds = %3
  br i1 %2, label %11, label %13

11:                                               ; preds = %10
  %12 = icmp eq i32 %1, 100
  br label %15

13:                                               ; preds = %10
  %14 = icmp eq i32 %1, 200
  br label %15

15:                                               ; preds = %3, %13, %11
  %.0 = phi i1 [ %12, %11 ], [ %14, %13 ], [ true, %3 ]
  ret i1 %.0
}